; Function Attrs: mustprogress nofree norecurse nosync nounwind memory(argmem: readwrite, inaccessiblemem: readwrite) uwtable
define hidden void @_ZN2cv6dynafuplERKNS0_10QuaternionES3_(ptr dead_on_unwind noalias writable writeonly sret(%"class.cv::dynafu::Quaternion") align 4 captures(none) %0, ptr noundef nonnull readonly align 4 captures(none) dereferenceable(16) %1, ptr noundef nonnull readonly align 4 captures(none) dereferenceable(16) %2) local_unnamed_addr #6 {
  %4 = alloca %"class.cv::Vec", align 4
  call void @llvm.lifetime.start.p0(i64 16, ptr nonnull %4) #18
  tail call void @llvm.experimental.noalias.scope.decl(metadata !25)
  br label %5

5:                                                ; preds = %5, %3
  %indvars.iv.i.i.i = phi i64 [ 0, %3 ], [ %indvars.iv.next.i.i.i, %5 ]
  %6 = getelementptr inbounds nuw [4 x float], ptr %1, i64 0, i64 %indvars.iv.i.i.i
  %7 = load float, ptr %6, align 4, !tbaa !3, !noalias !25
  %8 = getelementptr inbounds nuw [4 x float], ptr %2, i64 0, i64 %indvars.iv.i.i.i
  %9 = load float, ptr %8, align 4, !tbaa !3, !noalias !25
  %10 = fadd float %7, %9
  %11 = getelementptr inbounds nuw [4 x float], ptr %4, i64 0, i64 %indvars.iv.i.i.i
  store float %10, ptr %11, align 4, !tbaa !3, !alias.scope !25
  %indvars.iv.next.i.i.i = add nuw nsw i64 %indvars.iv.i.i.i, 1
  %exitcond.not.i.i.i = icmp eq i64 %indvars.iv.next.i.i.i, 4
  br i1 %exitcond.not.i.i.i, label %_ZN2cvplIfLi4EEENS_3VecIT_XT0_EEERKS3_S5_.exit, label %5, !llvm.loop !28

_ZN2cvplIfLi4EEENS_3VecIT_XT0_EEERKS3_S5_.exit:   ; preds = %5
  %12 = load float, ptr %4, align 4, !tbaa !3
  %13 = getelementptr inbounds nuw i8, ptr %4, i64 4
  %14 = load float, ptr %13, align 4, !tbaa !3
  %15 = getelementptr inbounds nuw i8, ptr %4, i64 8
  %16 = load float, ptr %15, align 4, !tbaa !3
  %17 = getelementptr inbounds nuw i8, ptr %4, i64 12
  %18 = load float, ptr %17, align 4, !tbaa !3
  store float %12, ptr %0, align 4, !tbaa !3
  %19 = getelementptr inbounds nuw i8, ptr %0, i64 4
  store float %14, ptr %19, align 4, !tbaa !3
  %20 = getelementptr inbounds nuw i8, ptr %0, i64 8
  store float %16, ptr %20, align 4, !tbaa !3
  %21 = getelementptr inbounds nuw i8, ptr %0, i64 12
  store float %18, ptr %21, align 4, !tbaa !3
  call void @llvm.lifetime.end.p0(i64 16, ptr nonnull %4) #18
  ret void
}